; Function Attrs: nounwind uwtable
define i32 @EVP_PKEY_set_params(ptr noundef captures(address_is_null) %0, ptr noundef %1) local_unnamed_addr #0 {
  %.not = icmp eq ptr %0, null
  br i1 %.not, label %13, label %3

3:                                                ; preds = %2
  %4 = getelementptr inbounds nuw i8, ptr %0, i64 96
  %5 = load ptr, ptr %4, align 8, !tbaa !30
  %.not7 = icmp eq ptr %5, null
  br i1 %.not7, label %13, label %6

6:                                                ; preds = %3
  %7 = getelementptr inbounds nuw i8, ptr %0, i64 112
  %8 = load i64, ptr %7, align 8, !tbaa !95
  %9 = add i64 %8, 1
  store i64 %9, ptr %7, align 8, !tbaa !95
  %10 = getelementptr inbounds nuw i8, ptr %0, i64 104
  %11 = load ptr, ptr %10, align 8, !tbaa !33
  %12 = tail call i32 @evp_keymgmt_set_params(ptr noundef nonnull %5, ptr noundef %11, ptr noundef %1) #12
  br label %14

13:                                               ; preds = %3, %2
  tail call void @ERR_new() #12
  tail call void @ERR_set_debug(ptr noundef nonnull @.str, i32 noundef 2438, ptr noundef nonnull @__func__.EVP_PKEY_set_params) #12
  tail call void (i32, i32, ptr, ...) @ERR_set_error(i32 noundef 6, i32 noundef 163, ptr noundef null) #12
  br label %14

14:                                               ; preds = %13, %6
  %.0 = phi i32 [ %12, %6 ], [ 0, %13 ]
  ret i32 %.0
}